; Function Attrs: mustprogress uwtable
define void @_ZN3net12CryptoFramer5ClearEv(ptr noundef nonnull align 8 dereferenceable(208) %0) local_unnamed_addr #0 align 2 personality ptr @__gxx_personality_v0 {
  %2 = getelementptr inbounds nuw i8, ptr %0, i64 64
  tail call void @_ZN3net22CryptoHandshakeMessage5ClearEv(ptr noundef nonnull align 8 dereferenceable(72) %2)
  %3 = getelementptr inbounds nuw i8, ptr %0, i64 176
  %4 = load ptr, ptr %3, align 8, !tbaa !45
  %5 = getelementptr inbounds nuw i8, ptr %0, i64 184
  %6 = load ptr, ptr %5, align 8, !tbaa !46
  %.not.i.i = icmp eq ptr %6, %4
  br i1 %.not.i.i, label %_ZNSt6vectorISt4pairIjmESaIS1_EE5clearEv.exit, label %7

7:                                                ; preds = %1
  store ptr %4, ptr %5, align 8, !tbaa !46
  br label %_ZNSt6vectorISt4pairIjmESaIS1_EE5clearEv.exit

_ZNSt6vectorISt4pairIjmESaIS1_EE5clearEv.exit:    ; preds = %1, %7
  %8 = getelementptr inbounds nuw i8, ptr %0, i64 16
  store i32 0, ptr %8, align 8, !tbaa !47
  %9 = getelementptr inbounds nuw i8, ptr %0, i64 136
  %10 = getelementptr inbounds nuw i8, ptr %0, i64 144
  %11 = load i64, ptr %10, align 8, !tbaa !42
  %12 = tail call noundef nonnull align 8 dereferenceable(32) ptr @_ZNSt7__cxx1112basic_stringIcSt11char_traitsIcESaIcEE10_M_replaceEmmPKcm(ptr noundef nonnull align 8 dereferenceable(32) %9, i64 noundef 0, i64 noundef %11, ptr noundef nonnull @.str, i64 noundef 0)
  %13 = getelementptr inbounds nuw i8, ptr %0, i64 56
  store i32 0, ptr %13, align 8, !tbaa !48
  ret void
}